target datalayout = "e-m:e-p270:32:32-p271:32:32-p272:64:64-i64:64-i128:128-f80:128-n8:16:32:64-S128"
target triple = "x86_64-pc-linux-gnu"

%struct.OSSL_HPKE_SUITE = type { i16, i16, i16 }

@testctx = internal global ptr null, align 8
@.str.31 = private unnamed_addr constant [28 x i8] c"../openssl/test/hpke_test.c\00", align 1
@.str.181 = private unnamed_addr constant [101 x i8] c"OSSL_HPKE_get_grease_value(NULL, &g_suite, g_pub, &g_pub_len, g_cipher, g_cipher_len, testctx, NULL)\00", align 1
@.str.182 = private unnamed_addr constant [9 x i8] c"expanded\00", align 1
@.str.183 = private unnamed_addr constant [9 x i8] c"clearlen\00", align 1
@.str.184 = private unnamed_addr constant [7 x i8] c"enclen\00", align 1
@.str.185 = private unnamed_addr constant [2 x i8] c"0\00", align 1
@.str.186 = private unnamed_addr constant [8 x i8] c"ikmelen\00", align 1

; Function Attrs: nounwind uwtable
define internal i32 @test_hpke_grease() #0 {
  %1 = alloca i32, align 4
  %2 = alloca %struct.OSSL_HPKE_SUITE, align 2
  %3 = alloca [512 x i8], align 16
  %4 = alloca i64, align 8
  %5 = alloca [512 x i8], align 16
  %6 = alloca i64, align 8
  %7 = alloca i64, align 8
  %8 = alloca i64, align 8
  %9 = alloca i64, align 8
  %10 = alloca i64, align 8
  %11 = alloca i48, align 8
  %12 = alloca i48, align 8
  %13 = alloca i48, align 8
  call void @llvm.lifetime.start.p0(i64 4, ptr %1) #7
  store i32 1, ptr %1, align 4, !tbaa !4
  call void @llvm.lifetime.start.p0(i64 6, ptr %2) #7
  call void @llvm.lifetime.start.p0(i64 512, ptr %3) #7
  call void @llvm.lifetime.start.p0(i64 8, ptr %4) #7
  store i64 512, ptr %4, align 8, !tbaa !13
  call void @llvm.lifetime.start.p0(i64 512, ptr %5) #7
  call void @llvm.lifetime.start.p0(i64 8, ptr %6) #7
  store i64 266, ptr %6, align 8, !tbaa !13
  call void @llvm.lifetime.start.p0(i64 8, ptr %7) #7
  store i64 128, ptr %7, align 8, !tbaa !13
  call void @llvm.lifetime.start.p0(i64 8, ptr %8) #7
  store i64 0, ptr %8, align 8, !tbaa !13
  call void @llvm.lifetime.start.p0(i64 8, ptr %9) #7
  store i64 0, ptr %9, align 8, !tbaa !13
  call void @llvm.lifetime.start.p0(i64 8, ptr %10) #7
  store i64 0, ptr %10, align 8, !tbaa !13
  call void @llvm.memset.p0.i64(ptr align 2 %2, i8 0, i64 6, i1 false)
  store i64 10, ptr %4, align 8, !tbaa !13
  %14 = getelementptr inbounds [512 x i8], ptr %3, i64 0, i64 0
  %15 = getelementptr inbounds [512 x i8], ptr %5, i64 0, i64 0
  %16 = load i64, ptr %6, align 8, !tbaa !13
  %17 = load ptr, ptr @testctx, align 8, !tbaa !19
  %18 = call i32 @OSSL_HPKE_get_grease_value(ptr noundef null, ptr noundef %2, ptr noundef %14, ptr noundef %4, ptr noundef %15, i64 noundef %16, ptr noundef %17, ptr noundef null)
  %19 = icmp ne i32 %18, 0
  %20 = zext i1 %19 to i32
  %21 = call i32 @test_false(ptr noundef @.str.31, i32 noundef 1276, ptr noundef @.str.181, i32 noundef %20)
  %22 = icmp ne i32 %21, 1
  br i1 %22, label %23, label %24

23:                                               ; preds = %0
  store i32 0, ptr %1, align 4, !tbaa !4
  br label %24

24:                                               ; preds = %23, %0
  store i64 512, ptr %4, align 8, !tbaa !13
  %25 = getelementptr inbounds [512 x i8], ptr %3, i64 0, i64 0
  %26 = getelementptr inbounds [512 x i8], ptr %5, i64 0, i64 0
  %27 = load i64, ptr %6, align 8, !tbaa !13
  %28 = load ptr, ptr @testctx, align 8, !tbaa !19
  %29 = call i32 @OSSL_HPKE_get_grease_value(ptr noundef null, ptr noundef %2, ptr noundef %25, ptr noundef %4, ptr noundef %26, i64 noundef %27, ptr noundef %28, ptr noundef null)
  %30 = icmp ne i32 %29, 0
  %31 = zext i1 %30 to i32
  %32 = call i32 @test_true(ptr noundef @.str.31, i32 noundef 1284, ptr noundef @.str.181, i32 noundef %31)
  %33 = icmp ne i32 %32, 1
  br i1 %33, label %34, label %35

34:                                               ; preds = %24
  store i32 0, ptr %1, align 4, !tbaa !4
  br label %35

35:                                               ; preds = %34, %24
  %36 = load i64, ptr %7, align 8, !tbaa !13
  call void @llvm.memcpy.p0.p0.i64(ptr align 8 %11, ptr align 2 %2, i64 6, i1 false)
  %37 = load i48, ptr %11, align 8
  %38 = call i64 @OSSL_HPKE_get_ciphertext_size(i48 %37, i64 noundef %36)
  store i64 %38, ptr %8, align 8, !tbaa !13
  %39 = load i64, ptr %8, align 8, !tbaa !13
  %40 = load i64, ptr %7, align 8, !tbaa !13
  %41 = call i32 @test_size_t_gt(ptr noundef @.str.31, i32 noundef 1289, ptr noundef @.str.182, ptr noundef @.str.183, i64 noundef %39, i64 noundef %40)
  %42 = icmp ne i32 %41, 0
  br i1 %42, label %44, label %43

43:                                               ; preds = %35
  store i32 0, ptr %1, align 4, !tbaa !4
  br label %44

44:                                               ; preds = %43, %35
  call void @llvm.memcpy.p0.p0.i64(ptr align 8 %12, ptr align 2 %2, i64 6, i1 false)
  %45 = load i48, ptr %12, align 8
  %46 = call i64 @OSSL_HPKE_get_public_encap_size(i48 %45)
  store i64 %46, ptr %9, align 8, !tbaa !13
  %47 = load i64, ptr %9, align 8, !tbaa !13
  %48 = call i32 @test_size_t_ne(ptr noundef @.str.31, i32 noundef 1293, ptr noundef @.str.184, ptr noundef @.str.185, i64 noundef %47, i64 noundef 0)
  %49 = icmp ne i32 %48, 0
  br i1 %49, label %51, label %50

50:                                               ; preds = %44
  store i32 0, ptr %1, align 4, !tbaa !4
  br label %51

51:                                               ; preds = %50, %44
  call void @llvm.memcpy.p0.p0.i64(ptr align 8 %13, ptr align 2 %2, i64 6, i1 false)
  %52 = load i48, ptr %13, align 8
  %53 = call i64 @OSSL_HPKE_get_recommended_ikmelen(i48 %52)
  store i64 %53, ptr %10, align 8, !tbaa !13
  %54 = load i64, ptr %10, align 8, !tbaa !13
  %55 = call i32 @test_size_t_ne(ptr noundef @.str.31, i32 noundef 1297, ptr noundef @.str.186, ptr noundef @.str.185, i64 noundef %54, i64 noundef 0)
  %56 = icmp ne i32 %55, 0
  br i1 %56, label %58, label %57

57:                                               ; preds = %51
  store i32 0, ptr %1, align 4, !tbaa !4
  br label %58

58:                                               ; preds = %57, %51
  %59 = load i32, ptr %1, align 4, !tbaa !4
  call void @llvm.lifetime.end.p0(i64 8, ptr %10) #7
  call void @llvm.lifetime.end.p0(i64 8, ptr %9) #7
  call void @llvm.lifetime.end.p0(i64 8, ptr %8) #7
  call void @llvm.lifetime.end.p0(i64 8, ptr %7) #7
  call void @llvm.lifetime.end.p0(i64 8, ptr %6) #7
  call void @llvm.lifetime.end.p0(i64 512, ptr %5) #7
  call void @llvm.lifetime.end.p0(i64 8, ptr %4) #7
  call void @llvm.lifetime.end.p0(i64 512, ptr %3) #7
  call void @llvm.lifetime.end.p0(i64 6, ptr %2) #7
  call void @llvm.lifetime.end.p0(i64 4, ptr %1) #7
  ret i32 %59
}