; Function Attrs: nounwind uwtable
define internal range(i32 0, 2) i32 @test_hpke_grease() #1 {
  %1 = alloca %struct.OSSL_HPKE_SUITE, align 8
  %2 = alloca [512 x i8], align 16
  %3 = alloca i64, align 8
  %4 = alloca [512 x i8], align 16
  call void @llvm.lifetime.start.p0(i64 6, ptr nonnull %1) #7
  call void @llvm.lifetime.start.p0(i64 512, ptr nonnull %2) #7
  call void @llvm.lifetime.start.p0(i64 8, ptr nonnull %3) #7
  call void @llvm.lifetime.start.p0(i64 512, ptr nonnull %4) #7
  call void @llvm.memset.p0.i64(ptr noundef nonnull align 8 dereferenceable(6) %1, i8 0, i64 6, i1 false)
  store i64 10, ptr %3, align 8, !tbaa !11
  %5 = load ptr, ptr @testctx, align 8, !tbaa !13
  %6 = call i32 @OSSL_HPKE_get_grease_value(ptr noundef null, ptr noundef nonnull %1, ptr noundef nonnull %2, ptr noundef nonnull %3, ptr noundef nonnull %4, i64 noundef 266, ptr noundef %5, ptr noundef null) #7
  %7 = icmp ne i32 %6, 0
  %8 = zext i1 %7 to i32
  %9 = call i32 @test_false(ptr noundef nonnull @.str.31, i32 noundef 1276, ptr noundef nonnull @.str.181, i32 noundef %8) #7
  %.not = icmp eq i32 %9, 1
  store i64 512, ptr %3, align 8, !tbaa !11
  %10 = load ptr, ptr @testctx, align 8, !tbaa !13
  %11 = call i32 @OSSL_HPKE_get_grease_value(ptr noundef null, ptr noundef nonnull %1, ptr noundef nonnull %2, ptr noundef nonnull %3, ptr noundef nonnull %4, i64 noundef 266, ptr noundef %10, ptr noundef null) #7
  %12 = icmp ne i32 %11, 0
  %13 = zext i1 %12 to i32
  %14 = call i32 @test_true(ptr noundef nonnull @.str.31, i32 noundef 1284, ptr noundef nonnull @.str.181, i32 noundef %13) #7
  %.not13 = icmp eq i32 %14, 1
  %.0.copyload3 = load i48, ptr %1, align 8
  %15 = call i64 @OSSL_HPKE_get_ciphertext_size(i48 %.0.copyload3, i64 noundef 128) #7
  %16 = call i32 @test_size_t_gt(ptr noundef nonnull @.str.31, i32 noundef 1289, ptr noundef nonnull @.str.182, ptr noundef nonnull @.str.183, i64 noundef %15, i64 noundef 128) #7
  %.not14 = icmp ne i32 %16, 0
  %.0.copyload1 = load i48, ptr %1, align 8
  %17 = call i64 @OSSL_HPKE_get_public_encap_size(i48 %.0.copyload1) #7
  %18 = call i32 @test_size_t_ne(ptr noundef nonnull @.str.31, i32 noundef 1293, ptr noundef nonnull @.str.184, ptr noundef nonnull @.str.185, i64 noundef %17, i64 noundef 0) #7
  %.not15 = icmp ne i32 %18, 0
  %.0.copyload = load i48, ptr %1, align 8
  %19 = call i64 @OSSL_HPKE_get_recommended_ikmelen(i48 %.0.copyload) #7
  %20 = call i32 @test_size_t_ne(ptr noundef nonnull @.str.31, i32 noundef 1297, ptr noundef nonnull @.str.186, ptr noundef nonnull @.str.185, i64 noundef %19, i64 noundef 0) #7
  %.not16 = icmp ne i32 %20, 0
  %21 = select i1 %.not16, i1 %.not15, i1 false
  %22 = select i1 %21, i1 %.not14, i1 false
  %23 = select i1 %22, i1 %.not13, i1 false
  %narrow18 = select i1 %23, i1 %.not, i1 false
  %.4 = zext i1 %narrow18 to i32
  call void @llvm.lifetime.end.p0(i64 512, ptr nonnull %4) #7
  call void @llvm.lifetime.end.p0(i64 8, ptr nonnull %3) #7
  call void @llvm.lifetime.end.p0(i64 512, ptr nonnull %2) #7
  call void @llvm.lifetime.end.p0(i64 6, ptr nonnull %1) #7
  ret i32 %.4
}